; Function Attrs: mustprogress nofree norecurse nosync nounwind willreturn memory(argmem: readwrite) uwtable
define void @lv_indev_set_group(ptr noundef captures(address_is_null) %0, ptr noundef %1) local_unnamed_addr #4 {
  %.not = icmp eq ptr %0, null
  br i1 %.not, label %7, label %3

3:                                                ; preds = %2
  %4 = load i32, ptr %0, align 8, !tbaa !23
  switch i32 %4, label %7 [
    i32 2, label %5
    i32 4, label %5
  ]

5:                                                ; preds = %3, %3
  %6 = getelementptr inbounds nuw i8, ptr %0, i64 248
  store ptr %1, ptr %6, align 8, !tbaa !108
  br label %7

7:                                                ; preds = %3, %5, %2
  ret void
}